; Function Attrs: nounwind uwtable
define internal fastcc noundef i32 @check_nesting_at_end() unnamed_addr #0 {
  %1 = alloca [256 x i8], align 16
  %2 = tail call zeroext i1 @zend_stack_is_empty(ptr noundef nonnull getelementptr inbounds (%struct._zend_php_scanner_globals, ptr @language_scanner_globals, i64 0, i32 11)) #16
  br i1 %2, label %18, label %3

3:                                                ; preds = %0
  %4 = tail call ptr @zend_stack_top(ptr noundef nonnull getelementptr inbounds (%struct._zend_php_scanner_globals, ptr @language_scanner_globals, i64 0, i32 11)) #16
  %5 = load i8, ptr %4, align 4
  %6 = getelementptr inbounds i8, ptr %4, i64 4
  %7 = load i32, ptr %6, align 4
  call void @llvm.lifetime.start.p0(i64 256, ptr nonnull %1)
  %8 = sext i8 %5 to i32
  %9 = call i32 (ptr, i64, ptr, ...) @snprintf(ptr noundef nonnull dereferenceable(1) %1, i64 noundef 256, ptr noundef nonnull @.str.23, i32 noundef %8) #16
  %10 = load i32, ptr getelementptr inbounds (%struct._zend_compiler_globals, ptr @compiler_globals, i64 0, i32 3), align 8
  %.not.i = icmp eq i32 %10, %7
  br i1 %.not.i, label %report_bad_nesting.exit, label %11

11:                                               ; preds = %3
  %12 = sext i32 %9 to i64
  %13 = getelementptr inbounds i8, ptr %1, i64 %12
  %14 = sub nsw i64 256, %12
  %15 = call i32 (ptr, i64, ptr, ...) @snprintf(ptr noundef nonnull %13, i64 noundef %14, ptr noundef nonnull @.str.24, i32 noundef %7) #16
  br label %report_bad_nesting.exit

report_bad_nesting.exit:                          ; preds = %3, %11
  %16 = load ptr, ptr @zend_ce_parse_error, align 8
  %17 = call ptr @zend_throw_exception(ptr noundef %16, ptr noundef nonnull %1, i64 noundef 0) #16
  call void @llvm.lifetime.end.p0(i64 256, ptr nonnull %1)
  br label %18

18:                                               ; preds = %0, %report_bad_nesting.exit
  %.0 = phi i32 [ -1, %report_bad_nesting.exit ], [ 0, %0 ]
  ret i32 %.0
}